target datalayout = "e-m:e-p270:32:32-p271:32:32-p272:64:64-i64:64-i128:128-f80:128-n8:16:32:64-S128"
target triple = "x86_64-pc-linux-gnu"

@.str.2 = private unnamed_addr constant [30 x i8] c"../openssl/test/rsa_mp_test.c\00", align 1
@test_rsa_mp.ptext_ex = internal global [9 x i8] c"T\85\9B4,I\EA*\00", align 1
@test_rsa_mp.param_set = internal global [2 x ptr] [ptr @key2048p3_v1, ptr @key2048p3_v2], align 16
@.str.10 = private unnamed_addr constant [4 x i8] c"key\00", align 1
@.str.11 = private unnamed_addr constant [26 x i8] c"(clen = key2048_key(key))\00", align 1
@.str.12 = private unnamed_addr constant [4 x i8] c"256\00", align 1
@.str.13 = private unnamed_addr constant [27 x i8] c"(clen = param_set[i](key))\00", align 1
@.str.14 = private unnamed_addr constant [28 x i8] c"RSA_check_key_ex(key, NULL)\00", align 1
@.str.15 = private unnamed_addr constant [4 x i8] c"num\00", align 1
@.str.16 = private unnamed_addr constant [5 x i8] c"clen\00", align 1
@.str.17 = private unnamed_addr constant [6 x i8] c"ptext\00", align 1
@.str.18 = private unnamed_addr constant [9 x i8] c"ptext_ex\00", align 1
@.str.20 = private unnamed_addr constant [2 x i8] c"1\00", align 1
@.str.44 = private unnamed_addr constant [123 x i8] c"RSA_set0_key(key, BN_bin2bn(n, sizeof(n) - 1, NULL), BN_bin2bn(e, sizeof(e) - 1, NULL), BN_bin2bn(d, sizeof(d) - 1, NULL))\00", align 1
@e = internal constant [4 x i8] c"\01\00\01\00", align 1

; Function Attrs: nounwind uwtable
define internal i32 @key2048_key(ptr noundef %0) #0 {
  %2 = alloca i32, align 4
  %3 = alloca ptr, align 8
  store ptr %0, ptr %3, align 8, !tbaa !8
  %4 = load ptr, ptr %3, align 8, !tbaa !8
  %5 = call ptr @BN_bin2bn(ptr noundef @n, i32 noundef 256, ptr noundef null)
  %6 = call ptr @BN_bin2bn(ptr noundef @e, i32 noundef 3, ptr noundef null)
  %7 = call ptr @BN_bin2bn(ptr noundef @d, i32 noundef 256, ptr noundef null)
  %8 = call i32 @RSA_set0_key(ptr noundef %4, ptr noundef %5, ptr noundef %6, ptr noundef %7)
  %9 = call i32 @test_int_eq(ptr noundef @.str.2, i32 noundef 144, ptr noundef @.str.44, ptr noundef @.str.20, i32 noundef %8, i32 noundef 1)
  %10 = icmp ne i32 %9, 0
  br i1 %10, label %12, label %11

11:                                               ; preds = %1
  store i32 0, ptr %2, align 4
  br label %15

12:                                               ; preds = %1
  %13 = load ptr, ptr %3, align 8, !tbaa !8
  %14 = call i32 @RSA_size(ptr noundef %13)
  store i32 %14, ptr %2, align 4
  br label %15

15:                                               ; preds = %12, %11
  %16 = load i32, ptr %2, align 4
  ret i32 %16
}

; Function Attrs: nounwind uwtable
define internal i32 @test_rsa_mp(i32 noundef %0) #0 {
  %2 = alloca i32, align 4
  %3 = alloca i32, align 4
  %4 = alloca ptr, align 8
  %5 = alloca [256 x i8], align 16
  %6 = alloca [256 x i8], align 16
  %7 = alloca i32, align 4
  %8 = alloca i32, align 4
  %9 = alloca i32, align 4
  store i32 %0, ptr %2, align 4, !tbaa !4
  call void @llvm.lifetime.start.p0(i64 4, ptr %3) #4
  store i32 0, ptr %3, align 4, !tbaa !4
  call void @llvm.lifetime.start.p0(i64 8, ptr %4) #4
  call void @llvm.lifetime.start.p0(i64 256, ptr %5) #4
  call void @llvm.lifetime.start.p0(i64 256, ptr %6) #4
  call void @llvm.lifetime.start.p0(i64 4, ptr %7) #4
  call void @llvm.lifetime.start.p0(i64 4, ptr %8) #4
  store i32 0, ptr %8, align 4, !tbaa !4
  call void @llvm.lifetime.start.p0(i64 4, ptr %9) #4
  store i32 8, ptr %7, align 4, !tbaa !4
  %10 = call ptr @RSA_new()
  store ptr %10, ptr %4, align 8, !tbaa !8
  %11 = load ptr, ptr %4, align 8, !tbaa !8
  %12 = call i32 @test_ptr(ptr noundef @.str.2, i32 noundef 267, ptr noundef @.str.10, ptr noundef %11)
  %13 = icmp ne i32 %12, 0
  br i1 %13, label %15, label %14

14:                                               ; preds = %1
  br label %63

15:                                               ; preds = %1
  %16 = load ptr, ptr %4, align 8, !tbaa !8
  %17 = call i32 @key2048_key(ptr noundef %16)
  store i32 %17, ptr %8, align 4, !tbaa !4
  %18 = call i32 @test_int_eq(ptr noundef @.str.2, i32 noundef 270, ptr noundef @.str.11, ptr noundef @.str.12, i32 noundef %17, i32 noundef 256)
  %19 = icmp ne i32 %18, 0
  br i1 %19, label %20, label %29

20:                                               ; preds = %15
  %21 = load i32, ptr %2, align 4, !tbaa !4
  %22 = sext i32 %21 to i64
  %23 = getelementptr inbounds [2 x ptr], ptr @test_rsa_mp.param_set, i64 0, i64 %22
  %24 = load ptr, ptr %23, align 8, !tbaa !13
  %25 = load ptr, ptr %4, align 8, !tbaa !8
  %26 = call i32 %24(ptr noundef %25)
  store i32 %26, ptr %8, align 4, !tbaa !4
  %27 = call i32 @test_int_eq(ptr noundef @.str.2, i32 noundef 271, ptr noundef @.str.13, ptr noundef @.str.12, i32 noundef %26, i32 noundef 256)
  %28 = icmp ne i32 %27, 0
  br i1 %28, label %30, label %29

29:                                               ; preds = %20, %15
  br label %63

30:                                               ; preds = %20
  %31 = load ptr, ptr %4, align 8, !tbaa !8
  %32 = call i32 @RSA_check_key_ex(ptr noundef %31, ptr noundef null)
  %33 = icmp ne i32 %32, 0
  %34 = zext i1 %33 to i32
  %35 = call i32 @test_true(ptr noundef @.str.2, i32 noundef 274, ptr noundef @.str.14, i32 noundef %34)
  %36 = icmp ne i32 %35, 0
  br i1 %36, label %38, label %37

37:                                               ; preds = %30
  br label %63

38:                                               ; preds = %30
  %39 = load i32, ptr %7, align 4, !tbaa !4
  %40 = getelementptr inbounds [256 x i8], ptr %6, i64 0, i64 0
  %41 = load ptr, ptr %4, align 8, !tbaa !8
  %42 = call i32 @RSA_public_encrypt(i32 noundef %39, ptr noundef @test_rsa_mp.ptext_ex, ptr noundef %40, ptr noundef %41, i32 noundef 1)
  store i32 %42, ptr %9, align 4, !tbaa !4
  %43 = load i32, ptr %9, align 4, !tbaa !4
  %44 = load i32, ptr %8, align 4, !tbaa !4
  %45 = call i32 @test_int_eq(ptr noundef @.str.2, i32 noundef 279, ptr noundef @.str.15, ptr noundef @.str.16, i32 noundef %43, i32 noundef %44)
  %46 = icmp ne i32 %45, 0
  br i1 %46, label %48, label %47

47:                                               ; preds = %38
  br label %63

48:                                               ; preds = %38
  %49 = load i32, ptr %9, align 4, !tbaa !4
  %50 = getelementptr inbounds [256 x i8], ptr %6, i64 0, i64 0
  %51 = getelementptr inbounds [256 x i8], ptr %5, i64 0, i64 0
  %52 = load ptr, ptr %4, align 8, !tbaa !8
  %53 = call i32 @RSA_private_decrypt(i32 noundef %49, ptr noundef %50, ptr noundef %51, ptr noundef %52, i32 noundef 1)
  store i32 %53, ptr %9, align 4, !tbaa !4
  %54 = getelementptr inbounds [256 x i8], ptr %5, i64 0, i64 0
  %55 = load i32, ptr %9, align 4, !tbaa !4
  %56 = sext i32 %55 to i64
  %57 = load i32, ptr %7, align 4, !tbaa !4
  %58 = sext i32 %57 to i64
  %59 = call i32 @test_mem_eq(ptr noundef @.str.2, i32 noundef 283, ptr noundef @.str.17, ptr noundef @.str.18, ptr noundef %54, i64 noundef %56, ptr noundef @test_rsa_mp.ptext_ex, i64 noundef %58)
  %60 = icmp ne i32 %59, 0
  br i1 %60, label %62, label %61

61:                                               ; preds = %48
  br label %63

62:                                               ; preds = %48
  store i32 1, ptr %3, align 4, !tbaa !4
  br label %63

63:                                               ; preds = %62, %61, %47, %37, %29, %14
  %64 = load ptr, ptr %4, align 8, !tbaa !8
  call void @RSA_free(ptr noundef %64)
  %65 = load i32, ptr %3, align 4, !tbaa !4
  call void @llvm.lifetime.end.p0(i64 4, ptr %9) #4
  call void @llvm.lifetime.end.p0(i64 4, ptr %8) #4
  call void @llvm.lifetime.end.p0(i64 4, ptr %7) #4
  call void @llvm.lifetime.end.p0(i64 256, ptr %6) #4
  call void @llvm.lifetime.end.p0(i64 256, ptr %5) #4
  call void @llvm.lifetime.end.p0(i64 8, ptr %4) #4
  call void @llvm.lifetime.end.p0(i64 4, ptr %3) #4
  ret i32 %65
}