; Function Attrs: nounwind uwtable
define internal range(i32 0, 2) i32 @test_rsa_mp(i32 noundef %0) #0 {
  %2 = alloca [256 x i8], align 16
  %3 = alloca [256 x i8], align 16
  call void @llvm.lifetime.start.p0(i64 256, ptr nonnull %2) #3
  call void @llvm.lifetime.start.p0(i64 256, ptr nonnull %3) #3
  %4 = tail call ptr @RSA_new() #3
  %5 = tail call i32 @test_ptr(ptr noundef nonnull @.str.2, i32 noundef 267, ptr noundef nonnull @.str.10, ptr noundef %4) #3
  %.not = icmp eq i32 %5, 0
  br i1 %.not, label %33, label %6

6:                                                ; preds = %1
  %7 = tail call ptr @BN_bin2bn(ptr noundef nonnull @n, i32 noundef 256, ptr noundef null) #3
  %8 = tail call ptr @BN_bin2bn(ptr noundef nonnull @e, i32 noundef 3, ptr noundef null) #3
  %9 = tail call ptr @BN_bin2bn(ptr noundef nonnull @d, i32 noundef 256, ptr noundef null) #3
  %10 = tail call i32 @RSA_set0_key(ptr noundef %4, ptr noundef %7, ptr noundef %8, ptr noundef %9) #3
  %11 = tail call i32 @test_int_eq(ptr noundef nonnull @.str.2, i32 noundef 144, ptr noundef nonnull @.str.44, ptr noundef nonnull @.str.20, i32 noundef %10, i32 noundef 1) #3
  %.not.i = icmp eq i32 %11, 0
  br i1 %.not.i, label %key2048_key.exit, label %12

12:                                               ; preds = %6
  %13 = tail call i32 @RSA_size(ptr noundef %4) #3
  br label %key2048_key.exit

key2048_key.exit:                                 ; preds = %6, %12
  %.0.i = phi i32 [ %13, %12 ], [ 0, %6 ]
  %14 = tail call i32 @test_int_eq(ptr noundef nonnull @.str.2, i32 noundef 270, ptr noundef nonnull @.str.11, ptr noundef nonnull @.str.12, i32 noundef %.0.i, i32 noundef 256) #3
  %.not14 = icmp eq i32 %14, 0
  br i1 %.not14, label %33, label %15

15:                                               ; preds = %key2048_key.exit
  %16 = sext i32 %0 to i64
  %17 = getelementptr inbounds [2 x ptr], ptr @test_rsa_mp.param_set, i64 0, i64 %16
  %18 = load ptr, ptr %17, align 8, !tbaa !4
  %19 = tail call i32 %18(ptr noundef %4) #3
  %20 = tail call i32 @test_int_eq(ptr noundef nonnull @.str.2, i32 noundef 271, ptr noundef nonnull @.str.13, ptr noundef nonnull @.str.12, i32 noundef %19, i32 noundef 256) #3
  %.not15 = icmp eq i32 %20, 0
  br i1 %.not15, label %33, label %21

21:                                               ; preds = %15
  %22 = tail call i32 @RSA_check_key_ex(ptr noundef %4, ptr noundef null) #3
  %23 = icmp ne i32 %22, 0
  %24 = zext i1 %23 to i32
  %25 = tail call i32 @test_true(ptr noundef nonnull @.str.2, i32 noundef 274, ptr noundef nonnull @.str.14, i32 noundef %24) #3
  %.not16 = icmp eq i32 %25, 0
  br i1 %.not16, label %33, label %26

26:                                               ; preds = %21
  %27 = call i32 @RSA_public_encrypt(i32 noundef 8, ptr noundef nonnull @test_rsa_mp.ptext_ex, ptr noundef nonnull %3, ptr noundef %4, i32 noundef 1) #3
  %28 = call i32 @test_int_eq(ptr noundef nonnull @.str.2, i32 noundef 279, ptr noundef nonnull @.str.15, ptr noundef nonnull @.str.16, i32 noundef %27, i32 noundef %19) #3
  %.not17 = icmp eq i32 %28, 0
  br i1 %.not17, label %33, label %29

29:                                               ; preds = %26
  %30 = call i32 @RSA_private_decrypt(i32 noundef %27, ptr noundef nonnull %3, ptr noundef nonnull %2, ptr noundef %4, i32 noundef 1) #3
  %31 = sext i32 %30 to i64
  %32 = call i32 @test_mem_eq(ptr noundef nonnull @.str.2, i32 noundef 283, ptr noundef nonnull @.str.17, ptr noundef nonnull @.str.18, ptr noundef nonnull %2, i64 noundef %31, ptr noundef nonnull @test_rsa_mp.ptext_ex, i64 noundef 8) #3
  %.not18 = icmp ne i32 %32, 0
  %spec.select = zext i1 %.not18 to i32
  br label %33

33:                                               ; preds = %29, %26, %21, %key2048_key.exit, %15, %1
  %.0 = phi i32 [ 0, %26 ], [ 0, %21 ], [ 0, %15 ], [ 0, %key2048_key.exit ], [ 0, %1 ], [ %spec.select, %29 ]
  call void @RSA_free(ptr noundef %4) #3
  call void @llvm.lifetime.end.p0(i64 256, ptr nonnull %3) #3
  call void @llvm.lifetime.end.p0(i64 256, ptr nonnull %2) #3
  ret i32 %.0
}